; Function Attrs: nounwind uwtable
define noalias noundef ptr @Gia_MiniAigProcessFile() local_unnamed_addr #2 {
  %1 = alloca [1000 x i8], align 16
  %2 = tail call noalias dereferenceable_or_null(16) ptr @malloc(i64 noundef 16) #26
  %3 = getelementptr inbounds nuw i8, ptr %2, i64 4
  store i32 0, ptr %3, align 4, !tbaa !34
  store i32 100, ptr %2, align 8, !tbaa !33
  %4 = tail call noalias dereferenceable_or_null(400) ptr @malloc(i64 noundef 400) #26
  %5 = getelementptr inbounds nuw i8, ptr %2, i64 8
  store ptr %4, ptr %5, align 8, !tbaa !11
  %6 = tail call noalias ptr @fopen(ptr noundef nonnull @.str.28, ptr noundef nonnull @.str.4)
  %7 = icmp eq ptr %6, null
  br i1 %7, label %8, label %9

8:                                                ; preds = %0
  %puts = tail call i32 @puts(ptr nonnull dereferenceable(1) @str.19)
  br label %48

9:                                                ; preds = %0
  call void @llvm.lifetime.start.p0(i64 1000, ptr nonnull %1) #25
  %10 = getelementptr inbounds nuw i8, ptr %1, i64 3
  br label %.outer.outer

.outer.outer:                                     ; preds = %Vec_IntPush.exit, %9
  %.pre.i24.ph = phi ptr [ %4, %9 ], [ %.pre.i21, %Vec_IntPush.exit ]
  %.013.ph.ph = phi i32 [ 0, %9 ], [ %17, %Vec_IntPush.exit ]
  %.012.ph.ph = phi i32 [ 0, %9 ], [ %14, %Vec_IntPush.exit ]
  br label %.outer

.outer:                                           ; preds = %.outer.outer, %16
  %.013.ph = phi i32 [ %17, %16 ], [ %.013.ph.ph, %.outer.outer ]
  %.012.ph = phi i32 [ %14, %16 ], [ %.012.ph.ph, %.outer.outer ]
  br label %11

11:                                               ; preds = %.outer, %13
  %.012 = phi i32 [ %14, %13 ], [ %.012.ph, %.outer ]
  %12 = call ptr @fgets(ptr noundef nonnull %1, i32 noundef 1000, ptr noundef nonnull %6)
  %.not = icmp eq ptr %12, null
  br i1 %.not, label %44, label %13

13:                                               ; preds = %11
  %14 = add nsw i32 %.012, 1
  %15 = load i8, ptr %1, align 16, !tbaa !66
  %.not15 = icmp eq i8 %15, 35
  br i1 %.not15, label %16, label %11, !llvm.loop !151

16:                                               ; preds = %13
  %17 = add nuw nsw i32 %.013.ph, 1
  %18 = call ptr @strtok(ptr noundef nonnull %10, ptr noundef nonnull @.str.30) #25
  %.not1618 = icmp eq ptr %18, null
  br i1 %.not1618, label %.outer, label %.lr.ph, !llvm.loop !151

.lr.ph:                                           ; preds = %16, %Vec_IntPush.exit
  %19 = phi ptr [ %.pre.i21, %Vec_IntPush.exit ], [ %.pre.i24.ph, %16 ]
  %.019 = phi ptr [ %43, %Vec_IntPush.exit ], [ %18, %16 ]
  %20 = call i64 @strtol(ptr noundef nonnull captures(none) %.019, ptr noundef null, i32 noundef 10) #25
  %21 = trunc i64 %20 to i32
  %22 = load i32, ptr %3, align 4, !tbaa !34
  %23 = load i32, ptr %2, align 8, !tbaa !33
  %24 = icmp eq i32 %22, %23
  br i1 %24, label %25, label %Vec_IntPush.exit

25:                                               ; preds = %.lr.ph
  %26 = icmp slt i32 %22, 16
  br i1 %26, label %27, label %32

27:                                               ; preds = %25
  %.not9.i.i = icmp eq ptr %19, null
  br i1 %.not9.i.i, label %30, label %28

28:                                               ; preds = %27
  %29 = call dereferenceable_or_null(64) ptr @realloc(ptr noundef nonnull %19, i64 noundef 64) #27
  br label %Vec_IntPush.exit.sink.split

30:                                               ; preds = %27
  %31 = call noalias dereferenceable_or_null(64) ptr @malloc(i64 noundef 64) #26
  br label %Vec_IntPush.exit.sink.split

32:                                               ; preds = %25
  %33 = shl nuw nsw i32 %22, 1
  %.not9.i9.i = icmp eq ptr %19, null
  %34 = zext nneg i32 %33 to i64
  %35 = shl nuw nsw i64 %34, 2
  br i1 %.not9.i9.i, label %38, label %36

36:                                               ; preds = %32
  %37 = call ptr @realloc(ptr noundef nonnull %19, i64 noundef %35) #27
  br label %Vec_IntPush.exit.sink.split

38:                                               ; preds = %32
  %39 = call noalias ptr @malloc(i64 noundef %35) #26
  br label %Vec_IntPush.exit.sink.split

Vec_IntPush.exit.sink.split:                      ; preds = %36, %38, %28, %30
  %.sink26 = phi ptr [ %29, %28 ], [ %31, %30 ], [ %37, %36 ], [ %39, %38 ]
  %.sink = phi i32 [ 16, %28 ], [ 16, %30 ], [ %33, %36 ], [ %33, %38 ]
  store ptr %.sink26, ptr %5, align 8, !tbaa !11
  store i32 %.sink, ptr %2, align 8, !tbaa !33
  br label %Vec_IntPush.exit

Vec_IntPush.exit:                                 ; preds = %Vec_IntPush.exit.sink.split, %.lr.ph
  %.pre.i21 = phi ptr [ %19, %.lr.ph ], [ %.sink26, %Vec_IntPush.exit.sink.split ]
  %40 = add nsw i32 %22, 1
  store i32 %40, ptr %3, align 4, !tbaa !34
  %41 = sext i32 %22 to i64
  %42 = getelementptr inbounds i32, ptr %.pre.i21, i64 %41
  store i32 %21, ptr %42, align 4, !tbaa !10
  %43 = call ptr @strtok(ptr noundef null, ptr noundef nonnull @.str.30) #25
  %.not16 = icmp eq ptr %43, null
  br i1 %.not16, label %.outer.outer, label %.lr.ph, !llvm.loop !152

44:                                               ; preds = %11
  %45 = call i32 @fclose(ptr noundef nonnull %6)
  %46 = call i32 (ptr, ...) @printf(ptr noundef nonnull dereferenceable(1) @.str.31, i32 noundef %.013.ph, i32 noundef %.012)
  %.val = load i32, ptr %3, align 4, !tbaa !34
  %47 = call i32 (ptr, ...) @printf(ptr noundef nonnull dereferenceable(1) @.str.32, i32 noundef %.val)
  call void @llvm.lifetime.end.p0(i64 1000, ptr nonnull %1) #25
  br label %48

48:                                               ; preds = %44, %8
  ret ptr %2
}